Certificate:
    Data:
        Version: 3 (0x2)
        Serial Number: 1 (0x1)
    Signature Algorithm: sha1WithRSAEncryption
        Issuer: C=US, ST=Unset, L=Unset, O=Unset, CN=www.example.com
        Validity
            Not Before: Jun  8 06:40:36 2014 GMT
            Not After : Jun  5 06:40:36 2024 GMT
        Subject: C=US, ST=Unset, O=Unset, CN=www.example.com
        Subject Public Key Info:
            Public Key Algorithm: rsaEncryption
                Public-Key: (2048 bit)
                Modulus:
                    00:ca:9c:18:a1:24:bf:a5:f6:bf:d9:8e:e3:3d:5b:
                    cb:24:02:c2:92:e3:a5:38:dd:6d:2d:e8:e3:f8:af:
                    70:3f:ac:ae:f7:23:18:c9:c1:c2:8c:3f:4d:ec:9e:
                    b7:08:1c:83:56:fa:46:4c:95:b5:d1:02:7b:4f:db:
                    f6:e1:e5:86:9f:d3:6e:c7:b2:cc:15:76:52:85:7f:
                    43:9e:f5:1c:27:31:1b:88:71:7c:2c:f0:2a:5c:71:
                    9a:05:4d:fa:67:cf:cf:92:8e:49:94:da:e1:67:02:
                    41:89:a1:bf:71:f2:9b:e2:68:f0:7d:a2:91:ae:71:
                    e5:62:ea:6c:ad:ef:2d:dc:d4:60:51:26:32:8a:0a:
                    35:a5:a2:ca:9b:65:e0:6f:f1:e6:93:a0:4c:f0:b0:
                    16:93:16:b9:51:83:bc:b7:0d:a5:7c:f6:06:d7:49:
                    45:96:ad:f3:08:63:47:0c:a1:f8:d4:ed:ca:89:a9:
                    01:f4:98:04:85:01:cc:25:21:ef:34:c7:a3:ea:85:
                    65:ff:bd:25:56:20:c6:e3:83:b9:e5:56:3c:20:7f:
                    5f:1c:87:a7:2d:94:f3:d4:98:e0:24:20:08:bc:cb:
                    2a:ec:54:eb:4c:ff:eb:b7:42:44:a9:6b:a3:22:45:
                    cd:35:73:4f:3f:77:8f:3a:4f:a1:ed:72:4e:45:5f:
                    c0:2b
                Exponent: 65537 (0x10001)
        X509v3 extensions:
            X509v3 Basic Constraints: 
                CA:FALSE
            X509v3 Subject Key Identifier: 
                16:2B:1C:4D:88:1D:5A:58:46:F0:71:27:8D:CB:B7:DB:78:52:A1:B1
            X509v3 Authority Key Identifier: 
                keyid:3E:70:81:92:B5:13:C9:6D:C0:43:41:85:83:2F:A6:83:C9:AC:B3:01

    Signature Algorithm: sha1WithRSAEncryption
         31:26:3b:e3:37:c5:ec:ce:5c:63:3b:96:57:9b:47:18:1a:0f:
         bd:2a:dc:66:5d:7e:ad:6b:a4:39:49:a1:95:c1:70:dd:a8:9b:
         72:69:42:5b:e9:4b:10:29:14:39:d4:7f:5b:29:47:17:f3:ac:
         95:68:79:d1:5d:fb:45:ae:c1:2d:04:78:e6:62:42:b2:1a:05:
         25:4f:16:e5:31:05:84:0d:33:e0:80:41:79:95:ec:5d:1c:67:
         a7:dc:0c:6a:fe:58:1c:de:58:9c:5f:c5:5b:61:96:d5:3c:87:
         af:fb:98:8c:f5:73:e7:39:95:7b:ee:07:b7:94:32:b2:20:59:
         8a:b8:10:dd:92:b3:9f:99:6d:81:1a:c0:16:3c:3f:52:a8:fd:
         47:48:b1:a0:eb:da:cc:e0:7b:58:0c:3a:0b:53:06:8f:87:52:
         70:19:b8:2b:04:c8:78:f4:03:23:2a:96:d4:ff:5d:79:8f:96:
         6e:2a:53:23:d7:c4:b5:3f:d1:42:cc:1d:3a:88:3f:49:36:da:
         5e:e3:ae:37:28:5b:02:c9:dc:9f:e1:8b:4f:22:86:28:e5:c5:
         60:5a:ba:e4:d7:aa:63:5e:b3:81:2a:6a:97:64:b4:df:64:a9:
         5c:c9:6b:4b:39:20:4d:a0:fb:42:72:8b:e7:90:43:2a:f6:91:
         2d:c7:b5:30
-----BEGIN CERTIFICATE-----
MIIDZjCCAk6gAwIBAgIBATANBgkqhkiG9w0BAQUFADBXMQswCQYDVQQGEwJVUzEO
MAwGA1UECAwFVW5zZXQxDjAMBgNVBAcMBVVuc2V0MQ4wDAYDVQQKDAVVbnNldDEY
MBYGA1UEAwwPd3d3LmV4YW1wbGUuY29tMB4XDTE0MDYwODA2NDAzNloXDTI0MDYw
NTA2NDAzNlowRzELMAkGA1UEBhMCVVMxDjAMBgNVBAgMBVVuc2V0MQ4wDAYDVQQK
DAVVbnNldDEYMBYGA1UEAwwPd3d3LmV4YW1wbGUuY29tMIIBIjANBgkqhkiG9w0B
AQEFAAOCAQ8AMIIBCgKCAQEAypwYoSS/pfa/2Y7jPVvLJALCkuOlON1tLejj+K9w
P6yu9yMYycHCjD9N7J63CByDVvpGTJW10QJ7T9v24eWGn9Nux7LMFXZShX9DnvUc
JzEbiHF8LPAqXHGaBU36Z8/Pko5JlNrhZwJBiaG/cfKb4mjwfaKRrnHlYupsre8t
3NRgUSYyigo1paLKm2Xgb/Hmk6BM8LAWkxa5UYO8tw2lfPYG10lFlq3zCGNHDKH4
1O3KiakB9JgEhQHMJSHvNMej6oVl/70lViDG44O55VY8IH9fHIenLZTz1JjgJCAI
vMsq7FTrTP/rt0JEqWujIkXNNXNPP3ePOk+h7XJORV/AKwIDAQABo00wSzAJBgNV
HRMEAjAAMB0GA1UdDgQWBBQWKxxNiB1aWEbwcSeNy7fbeFKhsTAfBgNVHSMEGDAW
gBQ+cIGStRPJbcBDQYWDL6aDyayzATANBgkqhkiG9w0BAQUFAAOCAQEAMSY74zfF
7M5cYzuWV5tHGBoPvSrcZl1+rWukOUmhlcFw3aibcmlCW+lLECkUOdR/WylHF/Os
lWh50V37Ra7BLQR45mJCshoFJU8W5TEFhA0z4IBBeZXsXRxnp9wMav5YHN5YnF/F
W2GW1TyHr/uYjPVz5zmVe+4Ht5QysiBZirgQ3ZKzn5ltgRrAFjw/Uqj9R0ixoOva
zOB7WAw6C1MGj4dScBm4KwTIePQDIyqW1P9deY+WbipTI9fEtT/RQswdOog/STba
XuOuNyhbAsncn+GLTyKGKOXFYFq65NeqY16zgSpql2S032SpXMlrSzkgTaD7QnKL
55BDKvaRLce1MA==
-----END CERTIFICATE-----
